; ModuleID = 'source-C-CXX/6/1041.c'
source_filename = "source-C-CXX/6/1041.c"
target datalayout = "e-m:e-p270:32:32-p271:32:32-p272:64:64-i64:64-f80:128-n8:16:32:64-S128"
target triple = "x86_64-pc-linux-gnu"

@.str = private unnamed_addr constant [9 x i8] c"%s %s %s\00", align 1
@.str.1 = private unnamed_addr constant [3 x i8] c"%s\00", align 1

; Function Attrs: nofree nounwind sspstrong uwtable
define dso_local i32 @main() local_unnamed_addr #0 {
  %1 = alloca [1000 x i8], align 16
  %2 = alloca [1000 x i8], align 16
  %3 = alloca [1000 x i8], align 16
  %4 = getelementptr inbounds [1000 x i8], [1000 x i8]* %3, i64 0, i64 0
  %5 = getelementptr inbounds [1000 x i8], [1000 x i8]* %1, i64 0, i64 0
  call void @llvm.lifetime.start.p0i8(i64 1000, i8* nonnull %5) #5
  %6 = getelementptr inbounds [1000 x i8], [1000 x i8]* %2, i64 0, i64 0
  call void @llvm.lifetime.start.p0i8(i64 1000, i8* nonnull %6) #5
  %7 = getelementptr inbounds [1000 x i8], [1000 x i8]* %3, i64 0, i64 0
  call void @llvm.lifetime.start.p0i8(i64 1000, i8* nonnull %7) #5
  %8 = call i32 (i8*, ...) @__isoc99_scanf(i8* getelementptr inbounds ([9 x i8], [9 x i8]* @.str, i64 0, i64 0), i8* nonnull %5, i8* nonnull %6, i8* nonnull %7)
  %9 = call i64 @strlen(i8* noundef nonnull %6) #6
  %10 = trunc i64 %9 to i32
  %11 = load i8, i8* %6, align 16
  %12 = load i8, i8* %5, align 16, !tbaa !5
  %13 = icmp eq i8 %12, 0
  br i1 %13, label %58, label %14

14:                                               ; preds = %0
  %15 = icmp sgt i32 %10, 0
  br i1 %15, label %16, label %41

16:                                               ; preds = %14
  %17 = and i64 %9, 4294967295
  br label %18

18:                                               ; preds = %16, %33
  %19 = phi i64 [ 0, %16 ], [ %34, %33 ]
  %20 = phi i8 [ %12, %16 ], [ %36, %33 ]
  %21 = icmp eq i8 %20, %11
  br i1 %21, label %22, label %33

22:                                               ; preds = %18, %38
  %23 = phi i64 [ %39, %38 ], [ 0, %18 ]
  %24 = getelementptr inbounds [1000 x i8], [1000 x i8]* %2, i64 0, i64 %23
  %25 = load i8, i8* %24, align 1, !tbaa !5
  %26 = add nuw nsw i64 %23, %19
  %27 = getelementptr inbounds [1000 x i8], [1000 x i8]* %1, i64 0, i64 %26
  %28 = load i8, i8* %27, align 1, !tbaa !5
  %29 = icmp eq i8 %25, %28
  br i1 %29, label %38, label %30

30:                                               ; preds = %22
  %31 = trunc i64 %23 to i32
  %32 = icmp eq i32 %31, %10
  br i1 %32, label %52, label %33

33:                                               ; preds = %30, %18
  %34 = add nuw i64 %19, 1
  %35 = getelementptr inbounds [1000 x i8], [1000 x i8]* %1, i64 0, i64 %34
  %36 = load i8, i8* %35, align 1, !tbaa !5
  %37 = icmp eq i8 %36, 0
  br i1 %37, label %58, label %18, !llvm.loop !8

38:                                               ; preds = %22
  %39 = add nuw nsw i64 %23, 1
  %40 = icmp eq i64 %39, %17
  br i1 %40, label %52, label %22, !llvm.loop !10

41:                                               ; preds = %14
  %42 = icmp eq i32 %10, 0
  br i1 %42, label %43, label %58

43:                                               ; preds = %41, %47
  %44 = phi i64 [ %48, %47 ], [ 0, %41 ]
  %45 = phi i8 [ %50, %47 ], [ %12, %41 ]
  %46 = icmp eq i8 %45, %11
  br i1 %46, label %52, label %47

47:                                               ; preds = %43
  %48 = add nuw i64 %44, 1
  %49 = getelementptr inbounds [1000 x i8], [1000 x i8]* %1, i64 0, i64 %48
  %50 = load i8, i8* %49, align 1, !tbaa !5
  %51 = icmp eq i8 %50, 0
  br i1 %51, label %58, label %43, !llvm.loop !8

52:                                               ; preds = %43, %30, %38
  %53 = phi i64 [ %19, %38 ], [ %19, %30 ], [ %44, %43 ]
  br i1 %15, label %54, label %58

54:                                               ; preds = %52
  %55 = and i64 %53, 4294967295
  %56 = getelementptr [1000 x i8], [1000 x i8]* %1, i64 0, i64 %55
  %57 = and i64 %9, 4294967295
  call void @llvm.memcpy.p0i8.p0i8.i64(i8* align 1 %56, i8* nonnull align 16 %4, i64 %57, i1 false)
  br label %58

58:                                               ; preds = %47, %33, %41, %54, %0, %52
  %59 = call i32 (i8*, ...) @printf(i8* nonnull dereferenceable(1) getelementptr inbounds ([3 x i8], [3 x i8]* @.str.1, i64 0, i64 0), i8* nonnull %5)
  call void @llvm.lifetime.end.p0i8(i64 1000, i8* nonnull %7) #5
  call void @llvm.lifetime.end.p0i8(i64 1000, i8* nonnull %6) #5
  call void @llvm.lifetime.end.p0i8(i64 1000, i8* nonnull %5) #5
  ret i32 0
}

; Function Attrs: argmemonly mustprogress nofree nosync nounwind willreturn
declare void @llvm.lifetime.start.p0i8(i64 immarg, i8* nocapture) #1

; Function Attrs: nofree nounwind
declare noundef i32 @__isoc99_scanf(i8* nocapture noundef readonly, ...) local_unnamed_addr #2

; Function Attrs: argmemonly mustprogress nofree nounwind readonly willreturn
declare i64 @strlen(i8* nocapture) local_unnamed_addr #3

; Function Attrs: nofree nounwind
declare noundef i32 @printf(i8* nocapture noundef readonly, ...) local_unnamed_addr #2

; Function Attrs: argmemonly mustprogress nofree nosync nounwind willreturn
declare void @llvm.lifetime.end.p0i8(i64 immarg, i8* nocapture) #1

; Function Attrs: argmemonly nofree nounwind willreturn
declare void @llvm.memcpy.p0i8.p0i8.i64(i8* noalias nocapture writeonly, i8* noalias nocapture readonly, i64, i1 immarg) #4


!llvm.module.flags = !{!0, !1, !2, !3}
!llvm.ident = !{!4}

!0 = !{i32 1, !"wchar_size", i32 4}
!1 = !{i32 7, !"PIC Level", i32 2}
!2 = !{i32 7, !"PIE Level", i32 2}
!3 = !{i32 7, !"uwtable", i32 1}
!4 = !{!"clang version 13.0.0"}
!5 = !{!6, !6, i64 0}
!6 = !{!"omnipotent char", !7, i64 0}
!7 = !{!"Simple C/C++ TBAA"}
!8 = distinct !{!8, !9}
!9 = !{!"llvm.loop.mustprogress"}
!10 = distinct !{!10, !9}
